target datalayout = "e-m:e-p270:32:32-p271:32:32-p272:64:64-i64:64-i128:128-f80:128-n8:16:32:64-S128"
target triple = "x86_64-pc-linux-gnu"

%struct.df_history_t = type { i32, i8, ptr, ptr, float, ptr, ptr, ptr, ptr, ptr, ptr, ptr, ptr, ptr, ptr }

; Function Attrs: mustprogress nounwind uwtable
define void @_Z15copy_df_historyP12df_history_tS0_(ptr noundef %0, ptr noundef %1) #2 {
  %3 = alloca ptr, align 8
  %4 = alloca ptr, align 8
  %5 = alloca i32, align 4
  %6 = alloca i32, align 4
  store ptr %0, ptr %3, align 8
  store ptr %1, ptr %4, align 8
  %7 = load ptr, ptr %4, align 8
  %8 = getelementptr inbounds %struct.df_history_t, ptr %7, i32 0, i32 0
  %9 = load i32, ptr %8, align 8
  %10 = load ptr, ptr %3, align 8
  %11 = getelementptr inbounds %struct.df_history_t, ptr %10, i32 0, i32 0
  store i32 %9, ptr %11, align 8
  %12 = load ptr, ptr %4, align 8
  %13 = getelementptr inbounds %struct.df_history_t, ptr %12, i32 0, i32 1
  %14 = load i8, ptr %13, align 4
  %15 = trunc i8 %14 to i1
  %16 = load ptr, ptr %3, align 8
  %17 = getelementptr inbounds %struct.df_history_t, ptr %16, i32 0, i32 1
  %18 = zext i1 %15 to i8
  store i8 %18, ptr %17, align 4
  %19 = load ptr, ptr %4, align 8
  %20 = getelementptr inbounds %struct.df_history_t, ptr %19, i32 0, i32 4
  %21 = load float, ptr %20, align 8
  %22 = load ptr, ptr %3, align 8
  %23 = getelementptr inbounds %struct.df_history_t, ptr %22, i32 0, i32 4
  store float %21, ptr %23, align 8
  store i32 0, ptr %5, align 4
  br label %24

24:                                               ; preds = %109, %2
  %25 = load i32, ptr %5, align 4
  %26 = load ptr, ptr %3, align 8
  %27 = getelementptr inbounds %struct.df_history_t, ptr %26, i32 0, i32 0
  %28 = load i32, ptr %27, align 8
  %29 = icmp slt i32 %25, %28
  br i1 %29, label %30, label %112

30:                                               ; preds = %24
  %31 = load ptr, ptr %4, align 8
  %32 = getelementptr inbounds %struct.df_history_t, ptr %31, i32 0, i32 5
  %33 = load ptr, ptr %32, align 8
  %34 = load i32, ptr %5, align 4
  %35 = sext i32 %34 to i64
  %36 = getelementptr inbounds float, ptr %33, i64 %35
  %37 = load float, ptr %36, align 4
  %38 = load ptr, ptr %3, align 8
  %39 = getelementptr inbounds %struct.df_history_t, ptr %38, i32 0, i32 5
  %40 = load ptr, ptr %39, align 8
  %41 = load i32, ptr %5, align 4
  %42 = sext i32 %41 to i64
  %43 = getelementptr inbounds float, ptr %40, i64 %42
  store float %37, ptr %43, align 4
  %44 = load ptr, ptr %4, align 8
  %45 = getelementptr inbounds %struct.df_history_t, ptr %44, i32 0, i32 6
  %46 = load ptr, ptr %45, align 8
  %47 = load i32, ptr %5, align 4
  %48 = sext i32 %47 to i64
  %49 = getelementptr inbounds float, ptr %46, i64 %48
  %50 = load float, ptr %49, align 4
  %51 = load ptr, ptr %3, align 8
  %52 = getelementptr inbounds %struct.df_history_t, ptr %51, i32 0, i32 6
  %53 = load ptr, ptr %52, align 8
  %54 = load i32, ptr %5, align 4
  %55 = sext i32 %54 to i64
  %56 = getelementptr inbounds float, ptr %53, i64 %55
  store float %50, ptr %56, align 4
  %57 = load ptr, ptr %4, align 8
  %58 = getelementptr inbounds %struct.df_history_t, ptr %57, i32 0, i32 7
  %59 = load ptr, ptr %58, align 8
  %60 = load i32, ptr %5, align 4
  %61 = sext i32 %60 to i64
  %62 = getelementptr inbounds float, ptr %59, i64 %61
  %63 = load float, ptr %62, align 4
  %64 = load ptr, ptr %3, align 8
  %65 = getelementptr inbounds %struct.df_history_t, ptr %64, i32 0, i32 7
  %66 = load ptr, ptr %65, align 8
  %67 = load i32, ptr %5, align 4
  %68 = sext i32 %67 to i64
  %69 = getelementptr inbounds float, ptr %66, i64 %68
  store float %63, ptr %69, align 4
  %70 = load ptr, ptr %4, align 8
  %71 = getelementptr inbounds %struct.df_history_t, ptr %70, i32 0, i32 8
  %72 = load ptr, ptr %71, align 8
  %73 = load i32, ptr %5, align 4
  %74 = sext i32 %73 to i64
  %75 = getelementptr inbounds float, ptr %72, i64 %74
  %76 = load float, ptr %75, align 4
  %77 = load ptr, ptr %3, align 8
  %78 = getelementptr inbounds %struct.df_history_t, ptr %77, i32 0, i32 8
  %79 = load ptr, ptr %78, align 8
  %80 = load i32, ptr %5, align 4
  %81 = sext i32 %80 to i64
  %82 = getelementptr inbounds float, ptr %79, i64 %81
  store float %76, ptr %82, align 4
  %83 = load ptr, ptr %4, align 8
  %84 = getelementptr inbounds %struct.df_history_t, ptr %83, i32 0, i32 2
  %85 = load ptr, ptr %84, align 8
  %86 = load i32, ptr %5, align 4
  %87 = sext i32 %86 to i64
  %88 = getelementptr inbounds i32, ptr %85, i64 %87
  %89 = load i32, ptr %88, align 4
  %90 = load ptr, ptr %3, align 8
  %91 = getelementptr inbounds %struct.df_history_t, ptr %90, i32 0, i32 2
  %92 = load ptr, ptr %91, align 8
  %93 = load i32, ptr %5, align 4
  %94 = sext i32 %93 to i64
  %95 = getelementptr inbounds i32, ptr %92, i64 %94
  store i32 %89, ptr %95, align 4
  %96 = load ptr, ptr %4, align 8
  %97 = getelementptr inbounds %struct.df_history_t, ptr %96, i32 0, i32 3
  %98 = load ptr, ptr %97, align 8
  %99 = load i32, ptr %5, align 4
  %100 = sext i32 %99 to i64
  %101 = getelementptr inbounds float, ptr %98, i64 %100
  %102 = load float, ptr %101, align 4
  %103 = load ptr, ptr %3, align 8
  %104 = getelementptr inbounds %struct.df_history_t, ptr %103, i32 0, i32 3
  %105 = load ptr, ptr %104, align 8
  %106 = load i32, ptr %5, align 4
  %107 = sext i32 %106 to i64
  %108 = getelementptr inbounds float, ptr %105, i64 %107
  store float %102, ptr %108, align 4
  br label %109

109:                                              ; preds = %30
  %110 = load i32, ptr %5, align 4
  %111 = add nsw i32 %110, 1
  store i32 %111, ptr %5, align 4
  br label %24, !llvm.loop !7

112:                                              ; preds = %24
  store i32 0, ptr %5, align 4
  br label %113

113:                                              ; preds = %257, %112
  %114 = load i32, ptr %5, align 4
  %115 = load ptr, ptr %3, align 8
  %116 = getelementptr inbounds %struct.df_history_t, ptr %115, i32 0, i32 0
  %117 = load i32, ptr %116, align 8
  %118 = icmp slt i32 %114, %117
  br i1 %118, label %119, label %260

119:                                              ; preds = %113
  store i32 0, ptr %6, align 4
  br label %120

120:                                              ; preds = %253, %119
  %121 = load i32, ptr %6, align 4
  %122 = load ptr, ptr %3, align 8
  %123 = getelementptr inbounds %struct.df_history_t, ptr %122, i32 0, i32 0
  %124 = load i32, ptr %123, align 8
  %125 = icmp slt i32 %121, %124
  br i1 %125, label %126, label %256

126:                                              ; preds = %120
  %127 = load ptr, ptr %4, align 8
  %128 = getelementptr inbounds %struct.df_history_t, ptr %127, i32 0, i32 9
  %129 = load ptr, ptr %128, align 8
  %130 = load i32, ptr %5, align 4
  %131 = sext i32 %130 to i64
  %132 = getelementptr inbounds ptr, ptr %129, i64 %131
  %133 = load ptr, ptr %132, align 8
  %134 = load i32, ptr %6, align 4
  %135 = sext i32 %134 to i64
  %136 = getelementptr inbounds float, ptr %133, i64 %135
  %137 = load float, ptr %136, align 4
  %138 = load ptr, ptr %3, align 8
  %139 = getelementptr inbounds %struct.df_history_t, ptr %138, i32 0, i32 9
  %140 = load ptr, ptr %139, align 8
  %141 = load i32, ptr %5, align 4
  %142 = sext i32 %141 to i64
  %143 = getelementptr inbounds ptr, ptr %140, i64 %142
  %144 = load ptr, ptr %143, align 8
  %145 = load i32, ptr %6, align 4
  %146 = sext i32 %145 to i64
  %147 = getelementptr inbounds float, ptr %144, i64 %146
  store float %137, ptr %147, align 4
  %148 = load ptr, ptr %4, align 8
  %149 = getelementptr inbounds %struct.df_history_t, ptr %148, i32 0, i32 10
  %150 = load ptr, ptr %149, align 8
  %151 = load i32, ptr %5, align 4
  %152 = sext i32 %151 to i64
  %153 = getelementptr inbounds ptr, ptr %150, i64 %152
  %154 = load ptr, ptr %153, align 8
  %155 = load i32, ptr %6, align 4
  %156 = sext i32 %155 to i64
  %157 = getelementptr inbounds float, ptr %154, i64 %156
  %158 = load float, ptr %157, align 4
  %159 = load ptr, ptr %3, align 8
  %160 = getelementptr inbounds %struct.df_history_t, ptr %159, i32 0, i32 10
  %161 = load ptr, ptr %160, align 8
  %162 = load i32, ptr %5, align 4
  %163 = sext i32 %162 to i64
  %164 = getelementptr inbounds ptr, ptr %161, i64 %163
  %165 = load ptr, ptr %164, align 8
  %166 = load i32, ptr %6, align 4
  %167 = sext i32 %166 to i64
  %168 = getelementptr inbounds float, ptr %165, i64 %167
  store float %158, ptr %168, align 4
  %169 = load ptr, ptr %4, align 8
  %170 = getelementptr inbounds %struct.df_history_t, ptr %169, i32 0, i32 11
  %171 = load ptr, ptr %170, align 8
  %172 = load i32, ptr %5, align 4
  %173 = sext i32 %172 to i64
  %174 = getelementptr inbounds ptr, ptr %171, i64 %173
  %175 = load ptr, ptr %174, align 8
  %176 = load i32, ptr %6, align 4
  %177 = sext i32 %176 to i64
  %178 = getelementptr inbounds float, ptr %175, i64 %177
  %179 = load float, ptr %178, align 4
  %180 = load ptr, ptr %3, align 8
  %181 = getelementptr inbounds %struct.df_history_t, ptr %180, i32 0, i32 11
  %182 = load ptr, ptr %181, align 8
  %183 = load i32, ptr %5, align 4
  %184 = sext i32 %183 to i64
  %185 = getelementptr inbounds ptr, ptr %182, i64 %184
  %186 = load ptr, ptr %185, align 8
  %187 = load i32, ptr %6, align 4
  %188 = sext i32 %187 to i64
  %189 = getelementptr inbounds float, ptr %186, i64 %188
  store float %179, ptr %189, align 4
  %190 = load ptr, ptr %4, align 8
  %191 = getelementptr inbounds %struct.df_history_t, ptr %190, i32 0, i32 12
  %192 = load ptr, ptr %191, align 8
  %193 = load i32, ptr %5, align 4
  %194 = sext i32 %193 to i64
  %195 = getelementptr inbounds ptr, ptr %192, i64 %194
  %196 = load ptr, ptr %195, align 8
  %197 = load i32, ptr %6, align 4
  %198 = sext i32 %197 to i64
  %199 = getelementptr inbounds float, ptr %196, i64 %198
  %200 = load float, ptr %199, align 4
  %201 = load ptr, ptr %3, align 8
  %202 = getelementptr inbounds %struct.df_history_t, ptr %201, i32 0, i32 12
  %203 = load ptr, ptr %202, align 8
  %204 = load i32, ptr %5, align 4
  %205 = sext i32 %204 to i64
  %206 = getelementptr inbounds ptr, ptr %203, i64 %205
  %207 = load ptr, ptr %206, align 8
  %208 = load i32, ptr %6, align 4
  %209 = sext i32 %208 to i64
  %210 = getelementptr inbounds float, ptr %207, i64 %209
  store float %200, ptr %210, align 4
  %211 = load ptr, ptr %4, align 8
  %212 = getelementptr inbounds %struct.df_history_t, ptr %211, i32 0, i32 13
  %213 = load ptr, ptr %212, align 8
  %214 = load i32, ptr %5, align 4
  %215 = sext i32 %214 to i64
  %216 = getelementptr inbounds ptr, ptr %213, i64 %215
  %217 = load ptr, ptr %216, align 8
  %218 = load i32, ptr %6, align 4
  %219 = sext i32 %218 to i64
  %220 = getelementptr inbounds float, ptr %217, i64 %219
  %221 = load float, ptr %220, align 4
  %222 = load ptr, ptr %3, align 8
  %223 = getelementptr inbounds %struct.df_history_t, ptr %222, i32 0, i32 13
  %224 = load ptr, ptr %223, align 8
  %225 = load i32, ptr %5, align 4
  %226 = sext i32 %225 to i64
  %227 = getelementptr inbounds ptr, ptr %224, i64 %226
  %228 = load ptr, ptr %227, align 8
  %229 = load i32, ptr %6, align 4
  %230 = sext i32 %229 to i64
  %231 = getelementptr inbounds float, ptr %228, i64 %230
  store float %221, ptr %231, align 4
  %232 = load ptr, ptr %4, align 8
  %233 = getelementptr inbounds %struct.df_history_t, ptr %232, i32 0, i32 14
  %234 = load ptr, ptr %233, align 8
  %235 = load i32, ptr %5, align 4
  %236 = sext i32 %235 to i64
  %237 = getelementptr inbounds ptr, ptr %234, i64 %236
  %238 = load ptr, ptr %237, align 8
  %239 = load i32, ptr %6, align 4
  %240 = sext i32 %239 to i64
  %241 = getelementptr inbounds float, ptr %238, i64 %240
  %242 = load float, ptr %241, align 4
  %243 = load ptr, ptr %3, align 8
  %244 = getelementptr inbounds %struct.df_history_t, ptr %243, i32 0, i32 14
  %245 = load ptr, ptr %244, align 8
  %246 = load i32, ptr %5, align 4
  %247 = sext i32 %246 to i64
  %248 = getelementptr inbounds ptr, ptr %245, i64 %247
  %249 = load ptr, ptr %248, align 8
  %250 = load i32, ptr %6, align 4
  %251 = sext i32 %250 to i64
  %252 = getelementptr inbounds float, ptr %249, i64 %251
  store float %242, ptr %252, align 4
  br label %253

253:                                              ; preds = %126
  %254 = load i32, ptr %6, align 4
  %255 = add nsw i32 %254, 1
  store i32 %255, ptr %6, align 4
  br label %120, !llvm.loop !8

256:                                              ; preds = %120
  br label %257

257:                                              ; preds = %256
  %258 = load i32, ptr %5, align 4
  %259 = add nsw i32 %258, 1
  store i32 %259, ptr %5, align 4
  br label %113, !llvm.loop !9

260:                                              ; preds = %113
  ret void
}