; Function Attrs: mustprogress nofree norecurse nosync nounwind memory(readwrite, inaccessiblemem: none) uwtable
define void @_Z15copy_df_historyP12df_history_tS0_(ptr nocapture noundef %0, ptr nocapture noundef readonly %1) local_unnamed_addr #2 {
  %3 = load i32, ptr %1, align 8
  store i32 %3, ptr %0, align 8
  %4 = getelementptr inbounds i8, ptr %1, i64 4
  %5 = load i8, ptr %4, align 4
  %6 = getelementptr inbounds i8, ptr %0, i64 4
  %7 = and i8 %5, 1
  store i8 %7, ptr %6, align 4
  %8 = getelementptr inbounds i8, ptr %1, i64 24
  %9 = load float, ptr %8, align 8
  %10 = getelementptr inbounds i8, ptr %0, i64 24
  store float %9, ptr %10, align 8
  %11 = icmp sgt i32 %3, 0
  br i1 %11, label %.lr.ph, label %._crit_edge80

.lr.ph:                                           ; preds = %2
  %12 = getelementptr inbounds i8, ptr %1, i64 32
  %13 = getelementptr inbounds i8, ptr %0, i64 32
  %14 = getelementptr inbounds i8, ptr %1, i64 40
  %15 = getelementptr inbounds i8, ptr %0, i64 40
  %16 = getelementptr inbounds i8, ptr %1, i64 48
  %17 = getelementptr inbounds i8, ptr %0, i64 48
  %18 = getelementptr inbounds i8, ptr %1, i64 56
  %19 = getelementptr inbounds i8, ptr %0, i64 56
  %20 = getelementptr inbounds i8, ptr %1, i64 8
  %21 = getelementptr inbounds i8, ptr %0, i64 8
  %22 = getelementptr inbounds i8, ptr %1, i64 16
  %23 = getelementptr inbounds i8, ptr %0, i64 16
  br label %37

.preheader75:                                     ; preds = %37
  %24 = icmp sgt i32 %68, 0
  br i1 %24, label %.preheader.preheader, label %._crit_edge80

.preheader.preheader:                             ; preds = %.preheader75
  %25 = getelementptr inbounds i8, ptr %1, i64 64
  %26 = getelementptr inbounds i8, ptr %0, i64 64
  %27 = getelementptr inbounds i8, ptr %1, i64 72
  %28 = getelementptr inbounds i8, ptr %0, i64 72
  %29 = getelementptr inbounds i8, ptr %1, i64 80
  %30 = getelementptr inbounds i8, ptr %0, i64 80
  %31 = getelementptr inbounds i8, ptr %1, i64 88
  %32 = getelementptr inbounds i8, ptr %0, i64 88
  %33 = getelementptr inbounds i8, ptr %1, i64 96
  %34 = getelementptr inbounds i8, ptr %0, i64 96
  %35 = getelementptr inbounds i8, ptr %1, i64 104
  %36 = getelementptr inbounds i8, ptr %0, i64 104
  br label %.preheader

37:                                               ; preds = %.lr.ph, %37
  %indvars.iv = phi i64 [ 0, %.lr.ph ], [ %indvars.iv.next, %37 ]
  %38 = load ptr, ptr %12, align 8
  %39 = getelementptr inbounds float, ptr %38, i64 %indvars.iv
  %40 = load float, ptr %39, align 4
  %41 = load ptr, ptr %13, align 8
  %42 = getelementptr inbounds float, ptr %41, i64 %indvars.iv
  store float %40, ptr %42, align 4
  %43 = load ptr, ptr %14, align 8
  %44 = getelementptr inbounds float, ptr %43, i64 %indvars.iv
  %45 = load float, ptr %44, align 4
  %46 = load ptr, ptr %15, align 8
  %47 = getelementptr inbounds float, ptr %46, i64 %indvars.iv
  store float %45, ptr %47, align 4
  %48 = load ptr, ptr %16, align 8
  %49 = getelementptr inbounds float, ptr %48, i64 %indvars.iv
  %50 = load float, ptr %49, align 4
  %51 = load ptr, ptr %17, align 8
  %52 = getelementptr inbounds float, ptr %51, i64 %indvars.iv
  store float %50, ptr %52, align 4
  %53 = load ptr, ptr %18, align 8
  %54 = getelementptr inbounds float, ptr %53, i64 %indvars.iv
  %55 = load float, ptr %54, align 4
  %56 = load ptr, ptr %19, align 8
  %57 = getelementptr inbounds float, ptr %56, i64 %indvars.iv
  store float %55, ptr %57, align 4
  %58 = load ptr, ptr %20, align 8
  %59 = getelementptr inbounds i32, ptr %58, i64 %indvars.iv
  %60 = load i32, ptr %59, align 4
  %61 = load ptr, ptr %21, align 8
  %62 = getelementptr inbounds i32, ptr %61, i64 %indvars.iv
  store i32 %60, ptr %62, align 4
  %63 = load ptr, ptr %22, align 8
  %64 = getelementptr inbounds float, ptr %63, i64 %indvars.iv
  %65 = load float, ptr %64, align 4
  %66 = load ptr, ptr %23, align 8
  %67 = getelementptr inbounds float, ptr %66, i64 %indvars.iv
  store float %65, ptr %67, align 4
  %indvars.iv.next = add nuw nsw i64 %indvars.iv, 1
  %68 = load i32, ptr %0, align 8
  %69 = sext i32 %68 to i64
  %70 = icmp slt i64 %indvars.iv.next, %69
  br i1 %70, label %37, label %.preheader75, !llvm.loop !7

.preheader:                                       ; preds = %.preheader.preheader, %._crit_edge
  %71 = phi i32 [ %68, %.preheader.preheader ], [ %130, %._crit_edge ]
  %indvars.iv86 = phi i64 [ 0, %.preheader.preheader ], [ %indvars.iv.next87, %._crit_edge ]
  %72 = icmp sgt i32 %71, 0
  br i1 %72, label %.lr.ph78, label %.preheader.._crit_edge_crit_edge

.preheader.._crit_edge_crit_edge:                 ; preds = %.preheader
  %.pre = sext i32 %71 to i64
  br label %._crit_edge

.lr.ph78:                                         ; preds = %.preheader, %.lr.ph78
  %indvars.iv83 = phi i64 [ %indvars.iv.next84, %.lr.ph78 ], [ 0, %.preheader ]
  %73 = load ptr, ptr %25, align 8
  %74 = getelementptr inbounds ptr, ptr %73, i64 %indvars.iv86
  %75 = load ptr, ptr %74, align 8
  %76 = getelementptr inbounds float, ptr %75, i64 %indvars.iv83
  %77 = load float, ptr %76, align 4
  %78 = load ptr, ptr %26, align 8
  %79 = getelementptr inbounds ptr, ptr %78, i64 %indvars.iv86
  %80 = load ptr, ptr %79, align 8
  %81 = getelementptr inbounds float, ptr %80, i64 %indvars.iv83
  store float %77, ptr %81, align 4
  %82 = load ptr, ptr %27, align 8
  %83 = getelementptr inbounds ptr, ptr %82, i64 %indvars.iv86
  %84 = load ptr, ptr %83, align 8
  %85 = getelementptr inbounds float, ptr %84, i64 %indvars.iv83
  %86 = load float, ptr %85, align 4
  %87 = load ptr, ptr %28, align 8
  %88 = getelementptr inbounds ptr, ptr %87, i64 %indvars.iv86
  %89 = load ptr, ptr %88, align 8
  %90 = getelementptr inbounds float, ptr %89, i64 %indvars.iv83
  store float %86, ptr %90, align 4
  %91 = load ptr, ptr %29, align 8
  %92 = getelementptr inbounds ptr, ptr %91, i64 %indvars.iv86
  %93 = load ptr, ptr %92, align 8
  %94 = getelementptr inbounds float, ptr %93, i64 %indvars.iv83
  %95 = load float, ptr %94, align 4
  %96 = load ptr, ptr %30, align 8
  %97 = getelementptr inbounds ptr, ptr %96, i64 %indvars.iv86
  %98 = load ptr, ptr %97, align 8
  %99 = getelementptr inbounds float, ptr %98, i64 %indvars.iv83
  store float %95, ptr %99, align 4
  %100 = load ptr, ptr %31, align 8
  %101 = getelementptr inbounds ptr, ptr %100, i64 %indvars.iv86
  %102 = load ptr, ptr %101, align 8
  %103 = getelementptr inbounds float, ptr %102, i64 %indvars.iv83
  %104 = load float, ptr %103, align 4
  %105 = load ptr, ptr %32, align 8
  %106 = getelementptr inbounds ptr, ptr %105, i64 %indvars.iv86
  %107 = load ptr, ptr %106, align 8
  %108 = getelementptr inbounds float, ptr %107, i64 %indvars.iv83
  store float %104, ptr %108, align 4
  %109 = load ptr, ptr %33, align 8
  %110 = getelementptr inbounds ptr, ptr %109, i64 %indvars.iv86
  %111 = load ptr, ptr %110, align 8
  %112 = getelementptr inbounds float, ptr %111, i64 %indvars.iv83
  %113 = load float, ptr %112, align 4
  %114 = load ptr, ptr %34, align 8
  %115 = getelementptr inbounds ptr, ptr %114, i64 %indvars.iv86
  %116 = load ptr, ptr %115, align 8
  %117 = getelementptr inbounds float, ptr %116, i64 %indvars.iv83
  store float %113, ptr %117, align 4
  %118 = load ptr, ptr %35, align 8
  %119 = getelementptr inbounds ptr, ptr %118, i64 %indvars.iv86
  %120 = load ptr, ptr %119, align 8
  %121 = getelementptr inbounds float, ptr %120, i64 %indvars.iv83
  %122 = load float, ptr %121, align 4
  %123 = load ptr, ptr %36, align 8
  %124 = getelementptr inbounds ptr, ptr %123, i64 %indvars.iv86
  %125 = load ptr, ptr %124, align 8
  %126 = getelementptr inbounds float, ptr %125, i64 %indvars.iv83
  store float %122, ptr %126, align 4
  %indvars.iv.next84 = add nuw nsw i64 %indvars.iv83, 1
  %127 = load i32, ptr %0, align 8
  %128 = sext i32 %127 to i64
  %129 = icmp slt i64 %indvars.iv.next84, %128
  br i1 %129, label %.lr.ph78, label %._crit_edge, !llvm.loop !8

._crit_edge:                                      ; preds = %.lr.ph78, %.preheader.._crit_edge_crit_edge
  %.pre-phi = phi i64 [ %.pre, %.preheader.._crit_edge_crit_edge ], [ %128, %.lr.ph78 ]
  %130 = phi i32 [ %71, %.preheader.._crit_edge_crit_edge ], [ %127, %.lr.ph78 ]
  %indvars.iv.next87 = add nuw nsw i64 %indvars.iv86, 1
  %131 = icmp slt i64 %indvars.iv.next87, %.pre-phi
  br i1 %131, label %.preheader, label %._crit_edge80, !llvm.loop !9

._crit_edge80:                                    ; preds = %._crit_edge, %2, %.preheader75
  ret void
}